target datalayout = "e-m:e-p270:32:32-p271:32:32-p272:64:64-i64:64-i128:128-f80:128-n8:16:32:64-S128"
target triple = "x86_64-pc-linux-gnu"

%struct.Complex = type { double, double }

; Function Attrs: nounwind uwtable
define i32 @isComplexUnit(double %0, double %1) #0 {
  %3 = alloca %struct.Complex, align 8
  %4 = getelementptr inbounds nuw { double, double }, ptr %3, i32 0, i32 0
  store double %0, ptr %4, align 8
  %5 = getelementptr inbounds nuw { double, double }, ptr %3, i32 0, i32 1
  store double %1, ptr %5, align 8
  %6 = getelementptr inbounds nuw %struct.Complex, ptr %3, i32 0, i32 0
  %7 = load double, ptr %6, align 8, !tbaa !11
  %8 = getelementptr inbounds nuw %struct.Complex, ptr %3, i32 0, i32 0
  %9 = load double, ptr %8, align 8, !tbaa !11
  %10 = getelementptr inbounds nuw %struct.Complex, ptr %3, i32 0, i32 1
  %11 = load double, ptr %10, align 8, !tbaa !14
  %12 = getelementptr inbounds nuw %struct.Complex, ptr %3, i32 0, i32 1
  %13 = load double, ptr %12, align 8, !tbaa !14
  %14 = fmul double %11, %13
  %15 = call double @llvm.fmuladd.f64(double %7, double %9, double %14)
  %16 = call double @sqrt(double noundef %15) #7, !tbaa !9
  %17 = fsub double 1.000000e+00, %16
  %18 = call double @llvm.fabs.f64(double %17)
  %19 = fcmp olt double %18, 1.000000e-13
  %20 = zext i1 %19 to i32
  ret i32 %20
}