; Function Attrs: mustprogress nofree norecurse nosync nounwind willreturn memory(none) uwtable
define range(i32 0, 2) i32 @isComplexUnit(double %0, double %1) local_unnamed_addr #4 {
  %3 = fmul double %1, %1
  %4 = tail call double @llvm.fmuladd.f64(double %0, double %0, double %3)
  %sqrt = tail call double @llvm.sqrt.f64(double %4)
  %5 = fsub double 1.000000e+00, %sqrt
  %6 = tail call double @llvm.fabs.f64(double %5)
  %7 = fcmp olt double %6, 1.000000e-13
  %8 = zext i1 %7 to i32
  ret i32 %8
}